target datalayout = "e-m:e-p270:32:32-p271:32:32-p272:64:64-i64:64-i128:128-f80:128-n8:16:32:64-S128"
target triple = "x86_64-pc-linux-gnu"

%struct.AVFilterContext = type { ptr, ptr, ptr, ptr, ptr, i32, ptr, ptr, i32, ptr, ptr, i32, i32, ptr, ptr, ptr, ptr, i32, ptr, i32, i32 }
%struct.ASoftClipContext = type { ptr, i32, i32, i64, double, double, double, [64 x %struct.Lowpass], [2 x ptr], ptr }
%struct.Lowpass = type { float, float, float, float, float, float, double, double, double, double, double, double }
%struct.AVFilterLink = type { ptr, ptr, ptr, ptr, i32, i32, i32, i32, %struct.AVRational, i32, i32, i32, %struct.AVChannelLayout, %struct.AVRational, ptr, i32, %struct.AVFilterFormatsConfig, %struct.AVFilterFormatsConfig }
%struct.AVChannelLayout = type { i32, i32, %union.anon.1, ptr }
%union.anon.1 = type { i64 }
%struct.AVRational = type { i32, i32 }
%struct.AVFilterFormatsConfig = type { ptr, ptr, ptr, ptr, ptr }

@.str.3 = private unnamed_addr constant [30 x i8] c"Assertion %s failed at %s:%d\0A\00", align 1
@.str.4 = private unnamed_addr constant [2 x i8] c"0\00", align 1
@.str.5 = private unnamed_addr constant [27 x i8] c"libavfilter/af_asoftclip.c\00", align 1

; Function Attrs: nounwind uwtable
define internal void @get_lowpass(ptr noundef %0, double noundef %1, double noundef %2) #2 {
  %4 = alloca ptr, align 8
  %5 = alloca double, align 8
  %6 = alloca double, align 8
  %7 = alloca double, align 8
  %8 = alloca double, align 8
  %9 = alloca double, align 8
  store ptr %0, ptr %4, align 8, !tbaa !104
  store double %1, ptr %5, align 8, !tbaa !87
  store double %2, ptr %6, align 8, !tbaa !87
  call void @llvm.lifetime.start.p0(i64 8, ptr %7) #10
  %10 = load double, ptr %5, align 8, !tbaa !87
  %11 = fmul nsz double 0x401921FB54442D18, %10
  %12 = load double, ptr %6, align 8, !tbaa !87
  %13 = fdiv nsz double %11, %12
  store double %13, ptr %7, align 8, !tbaa !87
  call void @llvm.lifetime.start.p0(i64 8, ptr %8) #10
  %14 = load double, ptr %7, align 8, !tbaa !87
  %15 = call nsz double @llvm.sin.f64(double %14)
  %16 = fdiv nsz double %15, 1.600000e+00
  store double %16, ptr %8, align 8, !tbaa !87
  call void @llvm.lifetime.start.p0(i64 8, ptr %9) #10
  %17 = load double, ptr %8, align 8, !tbaa !87
  %18 = fadd nsz double 1.000000e+00, %17
  %19 = load ptr, ptr %4, align 8, !tbaa !104
  %20 = getelementptr inbounds nuw %struct.Lowpass, ptr %19, i32 0, i32 9
  store double %18, ptr %20, align 8, !tbaa !106
  %21 = load double, ptr %7, align 8, !tbaa !87
  %22 = call nsz double @llvm.cos.f64(double %21)
  %23 = fmul nsz double -2.000000e+00, %22
  %24 = load ptr, ptr %4, align 8, !tbaa !104
  %25 = getelementptr inbounds nuw %struct.Lowpass, ptr %24, i32 0, i32 10
  store double %23, ptr %25, align 8, !tbaa !108
  %26 = load double, ptr %8, align 8, !tbaa !87
  %27 = fsub nsz double 1.000000e+00, %26
  %28 = load ptr, ptr %4, align 8, !tbaa !104
  %29 = getelementptr inbounds nuw %struct.Lowpass, ptr %28, i32 0, i32 11
  store double %27, ptr %29, align 8, !tbaa !109
  %30 = load double, ptr %7, align 8, !tbaa !87
  %31 = call nsz double @llvm.cos.f64(double %30)
  %32 = fsub nsz double 1.000000e+00, %31
  %33 = fdiv nsz double %32, 2.000000e+00
  %34 = load ptr, ptr %4, align 8, !tbaa !104
  %35 = getelementptr inbounds nuw %struct.Lowpass, ptr %34, i32 0, i32 6
  store double %33, ptr %35, align 8, !tbaa !110
  %36 = load double, ptr %7, align 8, !tbaa !87
  %37 = call nsz double @llvm.cos.f64(double %36)
  %38 = fsub nsz double 1.000000e+00, %37
  %39 = load ptr, ptr %4, align 8, !tbaa !104
  %40 = getelementptr inbounds nuw %struct.Lowpass, ptr %39, i32 0, i32 7
  store double %38, ptr %40, align 8, !tbaa !111
  %41 = load double, ptr %7, align 8, !tbaa !87
  %42 = call nsz double @llvm.cos.f64(double %41)
  %43 = fsub nsz double 1.000000e+00, %42
  %44 = fdiv nsz double %43, 2.000000e+00
  %45 = load ptr, ptr %4, align 8, !tbaa !104
  %46 = getelementptr inbounds nuw %struct.Lowpass, ptr %45, i32 0, i32 8
  store double %44, ptr %46, align 8, !tbaa !112
  %47 = load ptr, ptr %4, align 8, !tbaa !104
  %48 = getelementptr inbounds nuw %struct.Lowpass, ptr %47, i32 0, i32 9
  %49 = load double, ptr %48, align 8, !tbaa !106
  %50 = load ptr, ptr %4, align 8, !tbaa !104
  %51 = getelementptr inbounds nuw %struct.Lowpass, ptr %50, i32 0, i32 10
  %52 = load double, ptr %51, align 8, !tbaa !108
  %53 = fdiv nsz double %52, %49
  store double %53, ptr %51, align 8, !tbaa !108
  %54 = load ptr, ptr %4, align 8, !tbaa !104
  %55 = getelementptr inbounds nuw %struct.Lowpass, ptr %54, i32 0, i32 9
  %56 = load double, ptr %55, align 8, !tbaa !106
  %57 = load ptr, ptr %4, align 8, !tbaa !104
  %58 = getelementptr inbounds nuw %struct.Lowpass, ptr %57, i32 0, i32 11
  %59 = load double, ptr %58, align 8, !tbaa !109
  %60 = fdiv nsz double %59, %56
  store double %60, ptr %58, align 8, !tbaa !109
  %61 = load ptr, ptr %4, align 8, !tbaa !104
  %62 = getelementptr inbounds nuw %struct.Lowpass, ptr %61, i32 0, i32 9
  %63 = load double, ptr %62, align 8, !tbaa !106
  %64 = load ptr, ptr %4, align 8, !tbaa !104
  %65 = getelementptr inbounds nuw %struct.Lowpass, ptr %64, i32 0, i32 6
  %66 = load double, ptr %65, align 8, !tbaa !110
  %67 = fdiv nsz double %66, %63
  store double %67, ptr %65, align 8, !tbaa !110
  %68 = load ptr, ptr %4, align 8, !tbaa !104
  %69 = getelementptr inbounds nuw %struct.Lowpass, ptr %68, i32 0, i32 9
  %70 = load double, ptr %69, align 8, !tbaa !106
  %71 = load ptr, ptr %4, align 8, !tbaa !104
  %72 = getelementptr inbounds nuw %struct.Lowpass, ptr %71, i32 0, i32 7
  %73 = load double, ptr %72, align 8, !tbaa !111
  %74 = fdiv nsz double %73, %70
  store double %74, ptr %72, align 8, !tbaa !111
  %75 = load ptr, ptr %4, align 8, !tbaa !104
  %76 = getelementptr inbounds nuw %struct.Lowpass, ptr %75, i32 0, i32 9
  %77 = load double, ptr %76, align 8, !tbaa !106
  %78 = load ptr, ptr %4, align 8, !tbaa !104
  %79 = getelementptr inbounds nuw %struct.Lowpass, ptr %78, i32 0, i32 8
  %80 = load double, ptr %79, align 8, !tbaa !112
  %81 = fdiv nsz double %80, %77
  store double %81, ptr %79, align 8, !tbaa !112
  %82 = load ptr, ptr %4, align 8, !tbaa !104
  %83 = getelementptr inbounds nuw %struct.Lowpass, ptr %82, i32 0, i32 9
  %84 = load double, ptr %83, align 8, !tbaa !106
  %85 = load ptr, ptr %4, align 8, !tbaa !104
  %86 = getelementptr inbounds nuw %struct.Lowpass, ptr %85, i32 0, i32 9
  %87 = load double, ptr %86, align 8, !tbaa !106
  %88 = fdiv nsz double %87, %84
  store double %88, ptr %86, align 8, !tbaa !106
  %89 = load ptr, ptr %4, align 8, !tbaa !104
  %90 = getelementptr inbounds nuw %struct.Lowpass, ptr %89, i32 0, i32 9
  %91 = load double, ptr %90, align 8, !tbaa !106
  %92 = load ptr, ptr %4, align 8, !tbaa !104
  %93 = getelementptr inbounds nuw %struct.Lowpass, ptr %92, i32 0, i32 10
  %94 = load double, ptr %93, align 8, !tbaa !108
  %95 = fadd nsz double %91, %94
  %96 = load ptr, ptr %4, align 8, !tbaa !104
  %97 = getelementptr inbounds nuw %struct.Lowpass, ptr %96, i32 0, i32 11
  %98 = load double, ptr %97, align 8, !tbaa !109
  %99 = fadd nsz double %95, %98
  %100 = load ptr, ptr %4, align 8, !tbaa !104
  %101 = getelementptr inbounds nuw %struct.Lowpass, ptr %100, i32 0, i32 6
  %102 = load double, ptr %101, align 8, !tbaa !110
  %103 = load ptr, ptr %4, align 8, !tbaa !104
  %104 = getelementptr inbounds nuw %struct.Lowpass, ptr %103, i32 0, i32 7
  %105 = load double, ptr %104, align 8, !tbaa !111
  %106 = fadd nsz double %102, %105
  %107 = load ptr, ptr %4, align 8, !tbaa !104
  %108 = getelementptr inbounds nuw %struct.Lowpass, ptr %107, i32 0, i32 8
  %109 = load double, ptr %108, align 8, !tbaa !112
  %110 = fadd nsz double %106, %109
  %111 = fdiv nsz double %99, %110
  store double %111, ptr %9, align 8, !tbaa !87
  %112 = load double, ptr %9, align 8, !tbaa !87
  %113 = load ptr, ptr %4, align 8, !tbaa !104
  %114 = getelementptr inbounds nuw %struct.Lowpass, ptr %113, i32 0, i32 6
  %115 = load double, ptr %114, align 8, !tbaa !110
  %116 = fmul nsz double %115, %112
  store double %116, ptr %114, align 8, !tbaa !110
  %117 = load double, ptr %9, align 8, !tbaa !87
  %118 = load ptr, ptr %4, align 8, !tbaa !104
  %119 = getelementptr inbounds nuw %struct.Lowpass, ptr %118, i32 0, i32 7
  %120 = load double, ptr %119, align 8, !tbaa !111
  %121 = fmul nsz double %120, %117
  store double %121, ptr %119, align 8, !tbaa !111
  %122 = load double, ptr %9, align 8, !tbaa !87
  %123 = load ptr, ptr %4, align 8, !tbaa !104
  %124 = getelementptr inbounds nuw %struct.Lowpass, ptr %123, i32 0, i32 8
  %125 = load double, ptr %124, align 8, !tbaa !112
  %126 = fmul nsz double %125, %122
  store double %126, ptr %124, align 8, !tbaa !112
  %127 = load ptr, ptr %4, align 8, !tbaa !104
  %128 = getelementptr inbounds nuw %struct.Lowpass, ptr %127, i32 0, i32 9
  %129 = load double, ptr %128, align 8, !tbaa !106
  %130 = fptrunc nsz double %129 to float
  %131 = load ptr, ptr %4, align 8, !tbaa !104
  %132 = getelementptr inbounds nuw %struct.Lowpass, ptr %131, i32 0, i32 3
  store float %130, ptr %132, align 4, !tbaa !113
  %133 = load ptr, ptr %4, align 8, !tbaa !104
  %134 = getelementptr inbounds nuw %struct.Lowpass, ptr %133, i32 0, i32 10
  %135 = load double, ptr %134, align 8, !tbaa !108
  %136 = fptrunc nsz double %135 to float
  %137 = load ptr, ptr %4, align 8, !tbaa !104
  %138 = getelementptr inbounds nuw %struct.Lowpass, ptr %137, i32 0, i32 4
  store float %136, ptr %138, align 8, !tbaa !114
  %139 = load ptr, ptr %4, align 8, !tbaa !104
  %140 = getelementptr inbounds nuw %struct.Lowpass, ptr %139, i32 0, i32 11
  %141 = load double, ptr %140, align 8, !tbaa !109
  %142 = fptrunc nsz double %141 to float
  %143 = load ptr, ptr %4, align 8, !tbaa !104
  %144 = getelementptr inbounds nuw %struct.Lowpass, ptr %143, i32 0, i32 5
  store float %142, ptr %144, align 4, !tbaa !115
  %145 = load ptr, ptr %4, align 8, !tbaa !104
  %146 = getelementptr inbounds nuw %struct.Lowpass, ptr %145, i32 0, i32 6
  %147 = load double, ptr %146, align 8, !tbaa !110
  %148 = fptrunc nsz double %147 to float
  %149 = load ptr, ptr %4, align 8, !tbaa !104
  %150 = getelementptr inbounds nuw %struct.Lowpass, ptr %149, i32 0, i32 0
  store float %148, ptr %150, align 8, !tbaa !116
  %151 = load ptr, ptr %4, align 8, !tbaa !104
  %152 = getelementptr inbounds nuw %struct.Lowpass, ptr %151, i32 0, i32 7
  %153 = load double, ptr %152, align 8, !tbaa !111
  %154 = fptrunc nsz double %153 to float
  %155 = load ptr, ptr %4, align 8, !tbaa !104
  %156 = getelementptr inbounds nuw %struct.Lowpass, ptr %155, i32 0, i32 1
  store float %154, ptr %156, align 4, !tbaa !117
  %157 = load ptr, ptr %4, align 8, !tbaa !104
  %158 = getelementptr inbounds nuw %struct.Lowpass, ptr %157, i32 0, i32 8
  %159 = load double, ptr %158, align 8, !tbaa !112
  %160 = fptrunc nsz double %159 to float
  %161 = load ptr, ptr %4, align 8, !tbaa !104
  %162 = getelementptr inbounds nuw %struct.Lowpass, ptr %161, i32 0, i32 2
  store float %160, ptr %162, align 8, !tbaa !118
  call void @llvm.lifetime.end.p0(i64 8, ptr %9) #10
  call void @llvm.lifetime.end.p0(i64 8, ptr %8) #10
  call void @llvm.lifetime.end.p0(i64 8, ptr %7) #10
  ret void
}

; Function Attrs: nounwind uwtable
define internal i32 @config_input(ptr noundef %0) #2 {
  %2 = alloca i32, align 4
  %3 = alloca ptr, align 8
  %4 = alloca ptr, align 8
  %5 = alloca ptr, align 8
  %6 = alloca i32, align 4
  %7 = alloca i32, align 4
  store ptr %0, ptr %3, align 8, !tbaa !24
  call void @llvm.lifetime.start.p0(i64 8, ptr %4) #10
  %8 = load ptr, ptr %3, align 8, !tbaa !24
  %9 = getelementptr inbounds nuw %struct.AVFilterLink, ptr %8, i32 0, i32 2
  %10 = load ptr, ptr %9, align 8, !tbaa !28
  store ptr %10, ptr %4, align 8, !tbaa !4
  call void @llvm.lifetime.start.p0(i64 8, ptr %5) #10
  %11 = load ptr, ptr %4, align 8, !tbaa !4
  %12 = getelementptr inbounds nuw %struct.AVFilterContext, ptr %11, i32 0, i32 9
  %13 = load ptr, ptr %12, align 8, !tbaa !9
  store ptr %13, ptr %5, align 8, !tbaa !22
  %14 = load ptr, ptr %3, align 8, !tbaa !24
  %15 = getelementptr inbounds nuw %struct.AVFilterLink, ptr %14, i32 0, i32 5
  %16 = load i32, ptr %15, align 4, !tbaa !53
  switch i32 %16, label %23 [
    i32 8, label %17
    i32 9, label %20
  ]

17:                                               ; preds = %1
  %18 = load ptr, ptr %5, align 8, !tbaa !22
  %19 = getelementptr inbounds nuw %struct.ASoftClipContext, ptr %18, i32 0, i32 9
  store ptr @filter_flt, ptr %19, align 8, !tbaa !54
  br label %27

20:                                               ; preds = %1
  %21 = load ptr, ptr %5, align 8, !tbaa !22
  %22 = getelementptr inbounds nuw %struct.ASoftClipContext, ptr %21, i32 0, i32 9
  store ptr @filter_dbl, ptr %22, align 8, !tbaa !54
  br label %27

23:                                               ; preds = %1
  br label %24

24:                                               ; preds = %23
  call void (ptr, i32, ptr, ...) @av_log(ptr noundef null, i32 noundef 0, ptr noundef @.str.3, ptr noundef @.str.4, ptr noundef @.str.5, i32 noundef 384)
  call void @abort() #12
  unreachable

25:                                               ; No predecessors!
  br label %26

26:                                               ; preds = %25
  br label %27

27:                                               ; preds = %26, %20, %17
  %28 = load ptr, ptr %3, align 8, !tbaa !24
  %29 = call ptr @ff_get_audio_buffer(ptr noundef %28, i32 noundef 128)
  %30 = load ptr, ptr %5, align 8, !tbaa !22
  %31 = getelementptr inbounds nuw %struct.ASoftClipContext, ptr %30, i32 0, i32 8
  %32 = getelementptr inbounds [2 x ptr], ptr %31, i64 0, i64 0
  store ptr %29, ptr %32, align 8, !tbaa !26
  %33 = load ptr, ptr %3, align 8, !tbaa !24
  %34 = call ptr @ff_get_audio_buffer(ptr noundef %33, i32 noundef 128)
  %35 = load ptr, ptr %5, align 8, !tbaa !22
  %36 = getelementptr inbounds nuw %struct.ASoftClipContext, ptr %35, i32 0, i32 8
  %37 = getelementptr inbounds [2 x ptr], ptr %36, i64 0, i64 1
  store ptr %34, ptr %37, align 8, !tbaa !26
  %38 = load ptr, ptr %5, align 8, !tbaa !22
  %39 = getelementptr inbounds nuw %struct.ASoftClipContext, ptr %38, i32 0, i32 8
  %40 = getelementptr inbounds [2 x ptr], ptr %39, i64 0, i64 0
  %41 = load ptr, ptr %40, align 8, !tbaa !26
  %42 = icmp ne ptr %41, null
  br i1 %42, label %43, label %49

43:                                               ; preds = %27
  %44 = load ptr, ptr %5, align 8, !tbaa !22
  %45 = getelementptr inbounds nuw %struct.ASoftClipContext, ptr %44, i32 0, i32 8
  %46 = getelementptr inbounds [2 x ptr], ptr %45, i64 0, i64 1
  %47 = load ptr, ptr %46, align 8, !tbaa !26
  %48 = icmp ne ptr %47, null
  br i1 %48, label %50, label %49

49:                                               ; preds = %43, %27
  store i32 -12, ptr %2, align 4
  store i32 1, ptr %6, align 4
  br label %77

50:                                               ; preds = %43
  call void @llvm.lifetime.start.p0(i64 4, ptr %7) #10
  store i32 0, ptr %7, align 4, !tbaa !46
  br label %51

51:                                               ; preds = %73, %50
  %52 = load i32, ptr %7, align 4, !tbaa !46
  %53 = icmp slt i32 %52, 64
  br i1 %53, label %55, label %54

54:                                               ; preds = %51
  store i32 5, ptr %6, align 4
  call void @llvm.lifetime.end.p0(i64 4, ptr %7) #10
  br label %76

55:                                               ; preds = %51
  %56 = load ptr, ptr %5, align 8, !tbaa !22
  %57 = getelementptr inbounds nuw %struct.ASoftClipContext, ptr %56, i32 0, i32 7
  %58 = load i32, ptr %7, align 4, !tbaa !46
  %59 = sext i32 %58 to i64
  %60 = getelementptr inbounds [64 x %struct.Lowpass], ptr %57, i64 0, i64 %59
  %61 = load ptr, ptr %3, align 8, !tbaa !24
  %62 = getelementptr inbounds nuw %struct.AVFilterLink, ptr %61, i32 0, i32 11
  %63 = load i32, ptr %62, align 8, !tbaa !55
  %64 = sdiv i32 %63, 2
  %65 = sitofp i32 %64 to double
  %66 = load ptr, ptr %3, align 8, !tbaa !24
  %67 = getelementptr inbounds nuw %struct.AVFilterLink, ptr %66, i32 0, i32 11
  %68 = load i32, ptr %67, align 8, !tbaa !55
  %69 = load i32, ptr %7, align 4, !tbaa !46
  %70 = add nsw i32 %69, 1
  %71 = mul nsw i32 %68, %70
  %72 = sitofp i32 %71 to double
  call void @get_lowpass(ptr noundef %60, double noundef %65, double noundef %72)
  br label %73

73:                                               ; preds = %55
  %74 = load i32, ptr %7, align 4, !tbaa !46
  %75 = add nsw i32 %74, 1
  store i32 %75, ptr %7, align 4, !tbaa !46
  br label %51, !llvm.loop !56

76:                                               ; preds = %54
  store i32 0, ptr %2, align 4
  store i32 1, ptr %6, align 4
  br label %77

77:                                               ; preds = %76, %49
  call void @llvm.lifetime.end.p0(i64 8, ptr %5) #10
  call void @llvm.lifetime.end.p0(i64 8, ptr %4) #10
  %78 = load i32, ptr %2, align 4
  ret i32 %78
}