; Function Attrs: nounwind uwtable
define internal range(i32 -12, 1) i32 @config_input(ptr noundef %0) #2 {
  %2 = getelementptr inbounds nuw i8, ptr %0, i64 16
  %3 = load ptr, ptr %2, align 8, !tbaa !22
  %4 = getelementptr inbounds nuw i8, ptr %3, i64 72
  %5 = load ptr, ptr %4, align 8, !tbaa !4
  %6 = getelementptr inbounds nuw i8, ptr %0, i64 36
  %7 = load i32, ptr %6, align 4, !tbaa !49
  switch i32 %7, label %9 [
    i32 8, label %10
    i32 9, label %8
  ]

8:                                                ; preds = %1
  br label %10

9:                                                ; preds = %1
  tail call void (ptr, i32, ptr, ...) @av_log(ptr noundef null, i32 noundef 0, ptr noundef nonnull @.str.3, ptr noundef nonnull @.str.4, ptr noundef nonnull @.str.5, i32 noundef 384) #10
  tail call void @abort() #12
  unreachable

10:                                               ; preds = %1, %8
  %filter_dbl.sink = phi ptr [ @filter_dbl, %8 ], [ @filter_flt, %1 ]
  %11 = getelementptr inbounds nuw i8, ptr %5, i64 4672
  store ptr %filter_dbl.sink, ptr %11, align 8, !tbaa !50
  %12 = tail call ptr @ff_get_audio_buffer(ptr noundef nonnull %0, i32 noundef 128) #10
  %13 = getelementptr inbounds nuw i8, ptr %5, i64 4656
  store ptr %12, ptr %13, align 8, !tbaa !20
  %14 = tail call ptr @ff_get_audio_buffer(ptr noundef nonnull %0, i32 noundef 128) #10
  %15 = getelementptr inbounds nuw i8, ptr %5, i64 4664
  store ptr %14, ptr %15, align 8, !tbaa !20
  %16 = load ptr, ptr %13, align 8, !tbaa !20
  %.not = icmp eq ptr %16, null
  %.not19 = icmp eq ptr %14, null
  %or.cond = select i1 %.not, i1 true, i1 %.not19
  br i1 %or.cond, label %.loopexit, label %.preheader

.preheader:                                       ; preds = %10
  %17 = getelementptr inbounds nuw i8, ptr %5, i64 48
  %18 = getelementptr inbounds nuw i8, ptr %0, i64 64
  %19 = load i32, ptr %18, align 8, !tbaa !51
  %20 = sdiv i32 %19, 2
  %21 = sitofp i32 %20 to double
  %22 = fmul nsz double %21, 0x401921FB54442D18
  br label %23

23:                                               ; preds = %.preheader, %23
  %indvars.iv = phi i64 [ 0, %.preheader ], [ %indvars.iv.next, %23 ]
  %24 = getelementptr inbounds nuw [64 x %struct.Lowpass], ptr %17, i64 0, i64 %indvars.iv
  %indvars.iv.next = add nuw nsw i64 %indvars.iv, 1
  %25 = trunc i64 %indvars.iv.next to i32
  %26 = mul i32 %19, %25
  %27 = sitofp i32 %26 to double
  %28 = fdiv nsz double %22, %27
  %29 = tail call nsz double @llvm.sin.f64(double %28)
  %30 = fdiv nsz double %29, 1.600000e+00
  %31 = fadd nsz double %30, 1.000000e+00
  %32 = getelementptr inbounds nuw i8, ptr %24, i64 48
  %33 = tail call nsz double @llvm.cos.f64(double %28)
  %34 = fmul nsz double %33, -2.000000e+00
  %35 = getelementptr inbounds nuw i8, ptr %24, i64 56
  %36 = fsub nsz double 1.000000e+00, %30
  %37 = getelementptr inbounds nuw i8, ptr %24, i64 64
  %38 = fsub nsz double 1.000000e+00, %33
  %39 = fmul nsz double %38, 5.000000e-01
  %40 = getelementptr inbounds nuw i8, ptr %24, i64 24
  %41 = getelementptr inbounds nuw i8, ptr %24, i64 32
  %42 = getelementptr inbounds nuw i8, ptr %24, i64 40
  %43 = fdiv nsz double %34, %31
  store double %43, ptr %35, align 8, !tbaa !52
  %44 = fdiv nsz double %36, %31
  store double %44, ptr %37, align 8, !tbaa !55
  %45 = fdiv nsz double %39, %31
  %46 = fdiv nsz double %38, %31
  %47 = fdiv nsz double %31, %31
  store double %47, ptr %32, align 8, !tbaa !56
  %48 = fadd nsz double %47, %43
  %49 = fadd nsz double %44, %48
  %50 = fadd nsz double %45, %46
  %51 = fadd nsz double %45, %50
  %52 = fdiv nsz double %49, %51
  %53 = fmul nsz double %45, %52
  store double %53, ptr %40, align 8, !tbaa !57
  %54 = fmul nsz double %46, %52
  store double %54, ptr %41, align 8, !tbaa !58
  store double %53, ptr %42, align 8, !tbaa !59
  %55 = fptrunc nsz double %47 to float
  %56 = getelementptr inbounds nuw i8, ptr %24, i64 12
  store float %55, ptr %56, align 4, !tbaa !60
  %57 = fptrunc nsz double %43 to float
  %58 = getelementptr inbounds nuw i8, ptr %24, i64 16
  store float %57, ptr %58, align 8, !tbaa !61
  %59 = fptrunc nsz double %44 to float
  %60 = getelementptr inbounds nuw i8, ptr %24, i64 20
  store float %59, ptr %60, align 4, !tbaa !62
  %61 = fptrunc nsz double %53 to float
  store float %61, ptr %24, align 8, !tbaa !63
  %62 = fptrunc nsz double %54 to float
  %63 = getelementptr inbounds nuw i8, ptr %24, i64 4
  store float %62, ptr %63, align 4, !tbaa !64
  %64 = getelementptr inbounds nuw i8, ptr %24, i64 8
  store float %61, ptr %64, align 8, !tbaa !65
  %exitcond.not = icmp eq i64 %indvars.iv.next, 64
  br i1 %exitcond.not, label %.loopexit, label %23, !llvm.loop !66

.loopexit:                                        ; preds = %23, %10
  %.018 = phi i32 [ -12, %10 ], [ 0, %23 ]
  ret i32 %.018
}